-----BEGIN EC PARAMETERS-----
BggqhkjOPQMBBw==
-----END EC PARAMETERS-----
-----BEGIN EC PRIVATE KEY-----
MHcCAQEEIJFRWqvNGVp0kAi893Xal2xpvAAAXwtsh0DQdVPZ6Kr5oAoGCCqGSM49
AwEHoUQDQgAEcNbjTCIpDYcag4i+pnJKgEOnmHsEz8aBFiJBZS6poWmPgfamFmk7
ClssJSN+CU/yHjSSq6YP1nm5YFSg2CV5jA==
-----END EC PRIVATE KEY-----
Certificate:
    Data:
        Version: 3 (0x2)
        Serial Number:
            67:34:07:20:ad:ec:77:ad:00:4f:6a:68:29:22:d3:c7:68:03:87:e7
        Signature Algorithm: ecdsa-with-SHA256
        Issuer: C = FR, L = Limoges, O = CRYPTIS, OU = SecuTIC, CN = localhost
        Validity
            Not Before: May 14 13:58:17 2023 GMT
            Not After : May 11 13:58:17 2033 GMT
        Subject: C = FR, L = Limoges, O = CRYPTIS, OU = SecuTIC, CN = localhost
        Subject Public Key Info:
            Public Key Algorithm: id-ecPublicKey
                Public-Key: (256 bit)
                pub:
                    04:70:d6:e3:4c:22:29:0d:87:1a:83:88:be:a6:72:
                    4a:80:43:a7:98:7b:04:cf:c6:81:16:22:41:65:2e:
                    a9:a1:69:8f:81:f6:a6:16:69:3b:0a:5b:2c:25:23:
                    7e:09:4f:f2:1e:34:92:ab:a6:0f:d6:79:b9:60:54:
                    a0:d8:25:79:8c
                ASN1 OID: prime256v1
                NIST CURVE: P-256
        X509v3 extensions:
            X509v3 Basic Constraints: critical
                CA:FALSE
            X509v3 Subject Key Identifier: 
                F9:DE:BA:0B:3E:1F:39:48:09:48:44:D1:57:BF:C4:50:2E:D4:CE:44
            X509v3 Authority Key Identifier: 
                2D:F4:CD:42:25:26:D7:3E:D7:EC:FE:43:CE:0E:D9:08:E7:AC:AD:CD
    Signature Algorithm: ecdsa-with-SHA256
    Signature Value:
        30:45:02:20:64:41:a8:9a:9e:1c:50:2c:3e:d8:10:e3:cb:b9:
        89:ff:c3:fc:1d:81:e5:12:17:44:14:2d:57:f1:e3:98:f8:12:
        02:21:00:e0:2c:82:d7:ac:87:36:34:c8:1c:d1:5c:7d:e0:ad:
        23:b2:59:ee:7c:a2:c7:7c:5d:5c:cf:6e:a0:01:a1:4f:f9
-----BEGIN CERTIFICATE-----
MIICADCCAaagAwIBAgIUZzQHIK3sd60AT2poKSLTx2gDh+cwCgYIKoZIzj0EAwIw
VzELMAkGA1UEBhMCRlIxEDAOBgNVBAcMB0xpbW9nZXMxEDAOBgNVBAoMB0NSWVBU
SVMxEDAOBgNVBAsMB1NlY3VUSUMxEjAQBgNVBAMMCWxvY2FsaG9zdDAeFw0yMzA1
MTQxMzU4MTdaFw0zMzA1MTExMzU4MTdaMFcxCzAJBgNVBAYTAkZSMRAwDgYDVQQH
DAdMaW1vZ2VzMRAwDgYDVQQKDAdDUllQVElTMRAwDgYDVQQLDAdTZWN1VElDMRIw
EAYDVQQDDAlsb2NhbGhvc3QwWTATBgcqhkjOPQIBBggqhkjOPQMBBwNCAARw1uNM
IikNhxqDiL6mckqAQ6eYewTPxoEWIkFlLqmhaY+B9qYWaTsKWywlI34JT/IeNJKr
pg/WeblgVKDYJXmMo1AwTjAMBgNVHRMBAf8EAjAAMB0GA1UdDgQWBBT53roLPh85
SAlIRNFXv8RQLtTORDAfBgNVHSMEGDAWgBQt9M1CJSbXPtfs/kPODtkI56ytzTAK
BggqhkjOPQQDAgNIADBFAiBkQaianhxQLD7YEOPLuYn/w/wdgeUSF0QULVfx45j4
EgIhAOAsgteshzY0yBzRXH3grSOyWe58osd8XVzPbqABoU/5
-----END CERTIFICATE-----
