Certificate:
    Data:
        Version: 3 (0x2)
        Serial Number:
            78:eb:61:a8:08:20:50:75:5d:0b:70:18:dd:7f:98:01:19:a3:bd:0f
        Signature Algorithm: ecdsa-with-SHA256
        Issuer: C = FR, L = Limoges, O = CRYPTIS, OU = SecuTIC, CN = localhost
        Validity
            Not Before: May 14 13:15:19 2023 GMT
            Not After : Jun 13 13:15:19 2023 GMT
        Subject: C = FR, L = Limoges, O = CRYPTIS, OU = SecuTIC, CN = localhost
        Subject Public Key Info:
            Public Key Algorithm: id-ecPublicKey
                Public-Key: (256 bit)
                pub:
                    04:30:8e:d2:cc:7d:42:c4:57:a6:94:5f:7e:25:38:
                    ba:9b:16:7a:26:de:27:59:68:e1:c1:65:7e:26:6b:
                    59:31:4e:ea:3d:58:3c:be:e0:99:4c:22:8f:e8:0c:
                    31:33:16:9a:bc:70:98:69:90:a1:94:39:3d:a4:28:
                    d3:16:2f:36:94
                ASN1 OID: prime256v1
                NIST CURVE: P-256
        X509v3 extensions:
            X509v3 Basic Constraints: 
                CA:TRUE
            X509v3 Subject Key Identifier: 
                2D:F4:CD:42:25:26:D7:3E:D7:EC:FE:43:CE:0E:D9:08:E7:AC:AD:CD
    Signature Algorithm: ecdsa-with-SHA256
    Signature Value:
        30:44:02:20:04:0e:ad:c4:d3:83:4e:1b:8e:da:88:75:cd:db:
        0f:0b:cc:d1:f2:8c:31:df:d2:44:30:c3:c8:19:0c:14:24:2b:
        02:20:4d:86:46:18:77:94:70:d0:b8:6b:28:ba:ab:50:8c:49:
        83:09:a4:fe:6d:02:c1:84:72:7b:6c:66:52:30:b7:0f
-----BEGIN CERTIFICATE-----
MIIB3jCCAYWgAwIBAgIUeOthqAggUHVdC3AY3X+YARmjvQ8wCgYIKoZIzj0EAwIw
VzELMAkGA1UEBhMCRlIxEDAOBgNVBAcMB0xpbW9nZXMxEDAOBgNVBAoMB0NSWVBU
SVMxEDAOBgNVBAsMB1NlY3VUSUMxEjAQBgNVBAMMCWxvY2FsaG9zdDAeFw0yMzA1
MTQxMzE1MTlaFw0yMzA2MTMxMzE1MTlaMFcxCzAJBgNVBAYTAkZSMRAwDgYDVQQH
DAdMaW1vZ2VzMRAwDgYDVQQKDAdDUllQVElTMRAwDgYDVQQLDAdTZWN1VElDMRIw
EAYDVQQDDAlsb2NhbGhvc3QwWTATBgcqhkjOPQIBBggqhkjOPQMBBwNCAAQwjtLM
fULEV6aUX34lOLqbFnom3idZaOHBZX4ma1kxTuo9WDy+4JlMIo/oDDEzFpq8cJhp
kKGUOT2kKNMWLzaUoy8wLTAMBgNVHRMEBTADAQH/MB0GA1UdDgQWBBQt9M1CJSbX
Ptfs/kPODtkI56ytzTAKBggqhkjOPQQDAgNHADBEAiAEDq3E04NOG47aiHXN2w8L
zNHyjDHf0kQww8gZDBQkKwIgTYZGGHeUcNC4ayi6q1CMSYMJpP5tAsGEcntsZlIw
tw8=
-----END CERTIFICATE-----
