Certificate Request:
    Data:
        Version: 1 (0x0)
        Subject: C = FR, L = Limoges, O = CRYPTIS, OU = SecuTIC, CN = localhost
        Subject Public Key Info:
            Public Key Algorithm: id-ecPublicKey
                Public-Key: (256 bit)
                pub:
                    04:70:d6:e3:4c:22:29:0d:87:1a:83:88:be:a6:72:
                    4a:80:43:a7:98:7b:04:cf:c6:81:16:22:41:65:2e:
                    a9:a1:69:8f:81:f6:a6:16:69:3b:0a:5b:2c:25:23:
                    7e:09:4f:f2:1e:34:92:ab:a6:0f:d6:79:b9:60:54:
                    a0:d8:25:79:8c
                ASN1 OID: prime256v1
                NIST CURVE: P-256
        Attributes:
            Requested Extensions:
                X509v3 Basic Constraints: 
                    CA:FALSE
    Signature Algorithm: ecdsa-with-SHA256
    Signature Value:
        30:45:02:21:00:e8:50:5f:cd:ba:ab:c3:2d:7b:2e:d2:42:d3:
        c1:bb:69:00:ea:c2:22:4b:4e:0c:dc:aa:1a:aa:d9:d9:ae:32:
        8b:02:20:66:cf:3e:4c:ca:fe:0e:f5:66:9a:2d:c8:2f:65:aa:
        92:92:43:ac:f9:36:a5:9f:81:7f:26:8a:09:fb:e5:3f:49
-----BEGIN CERTIFICATE REQUEST-----
MIIBLjCB1QIBADBXMQswCQYDVQQGEwJGUjEQMA4GA1UEBwwHTGltb2dlczEQMA4G
A1UECgwHQ1JZUFRJUzEQMA4GA1UECwwHU2VjdVRJQzESMBAGA1UEAwwJbG9jYWxo
b3N0MFkwEwYHKoZIzj0CAQYIKoZIzj0DAQcDQgAEcNbjTCIpDYcag4i+pnJKgEOn
mHsEz8aBFiJBZS6poWmPgfamFmk7ClssJSN+CU/yHjSSq6YP1nm5YFSg2CV5jKAc
MBoGCSqGSIb3DQEJDjENMAswCQYDVR0TBAIwADAKBggqhkjOPQQDAgNIADBFAiEA
6FBfzbqrwy17LtJC08G7aQDqwiJLTgzcqhqq2dmuMosCIGbPPkzK/g71ZpotyC9l
qpKSQ6z5NqWfgX8mign75T9J
-----END CERTIFICATE REQUEST-----
